; Function Attrs: mustprogress uwtable
define internal fastcc noundef range(i32 0, 2) i32 @_ZL14stbi__pnm_testP13stbi__context(ptr noundef nonnull %0) unnamed_addr #5 {
  %2 = getelementptr inbounds nuw i8, ptr %0, i64 192
  %3 = load ptr, ptr %2, align 8, !tbaa !20
  %4 = getelementptr inbounds nuw i8, ptr %0, i64 200
  %5 = load ptr, ptr %4, align 8, !tbaa !23
  %6 = icmp ult ptr %3, %5
  br i1 %6, label %7, label %10

7:                                                ; preds = %1
  %8 = getelementptr inbounds nuw i8, ptr %3, i64 1
  store ptr %8, ptr %2, align 8, !tbaa !20
  %9 = load i8, ptr %3, align 1, !tbaa !22
  br label %_ZL10stbi__get8P13stbi__context.exit

10:                                               ; preds = %1
  %11 = getelementptr inbounds nuw i8, ptr %0, i64 48
  %12 = load i32, ptr %11, align 8, !tbaa !17
  %.not.i = icmp eq i32 %12, 0
  br i1 %.not.i, label %_ZL10stbi__get8P13stbi__context.exit, label %13

13:                                               ; preds = %10
  %14 = getelementptr inbounds nuw i8, ptr %0, i64 16
  %15 = load ptr, ptr %14, align 8, !tbaa !21
  %16 = getelementptr inbounds nuw i8, ptr %0, i64 40
  %17 = load ptr, ptr %16, align 8, !tbaa !13
  %18 = getelementptr inbounds nuw i8, ptr %0, i64 56
  %19 = getelementptr inbounds nuw i8, ptr %0, i64 52
  %20 = load i32, ptr %19, align 4, !tbaa !16
  %21 = tail call noundef i32 %15(ptr noundef %17, ptr noundef nonnull %18, i32 noundef %20)
  %22 = load ptr, ptr %2, align 8, !tbaa !20
  %23 = getelementptr inbounds nuw i8, ptr %0, i64 208
  %24 = load ptr, ptr %23, align 8, !tbaa !19
  %25 = ptrtoint ptr %22 to i64
  %26 = ptrtoint ptr %24 to i64
  %27 = sub i64 %25, %26
  %28 = trunc i64 %27 to i32
  %29 = getelementptr inbounds nuw i8, ptr %0, i64 184
  %30 = load i32, ptr %29, align 8, !tbaa !18
  %31 = add nsw i32 %30, %28
  store i32 %31, ptr %29, align 8, !tbaa !18
  %32 = icmp eq i32 %21, 0
  br i1 %32, label %33, label %35

33:                                               ; preds = %13
  store i32 0, ptr %11, align 8, !tbaa !17
  %34 = getelementptr inbounds nuw i8, ptr %0, i64 57
  store i8 0, ptr %18, align 1, !tbaa !22
  br label %_ZL19stbi__refill_bufferP13stbi__context.exit.i

35:                                               ; preds = %13
  %36 = sext i32 %21 to i64
  %37 = getelementptr inbounds i8, ptr %18, i64 %36
  %.pre.i = load i8, ptr %18, align 1, !tbaa !22
  br label %_ZL19stbi__refill_bufferP13stbi__context.exit.i

_ZL19stbi__refill_bufferP13stbi__context.exit.i:  ; preds = %35, %33
  %38 = phi i8 [ 0, %33 ], [ %.pre.i, %35 ]
  %.sink.i.i = phi ptr [ %34, %33 ], [ %37, %35 ]
  store ptr %.sink.i.i, ptr %4, align 8, !tbaa !23
  %39 = getelementptr inbounds nuw i8, ptr %0, i64 57
  store ptr %39, ptr %2, align 8, !tbaa !20
  br label %_ZL10stbi__get8P13stbi__context.exit

_ZL10stbi__get8P13stbi__context.exit:             ; preds = %7, %10, %_ZL19stbi__refill_bufferP13stbi__context.exit.i
  %40 = phi ptr [ %5, %7 ], [ %.sink.i.i, %_ZL19stbi__refill_bufferP13stbi__context.exit.i ], [ %5, %10 ]
  %41 = phi ptr [ %8, %7 ], [ %39, %_ZL19stbi__refill_bufferP13stbi__context.exit.i ], [ %3, %10 ]
  %.0.i = phi i8 [ %9, %7 ], [ %38, %_ZL19stbi__refill_bufferP13stbi__context.exit.i ], [ 0, %10 ]
  %42 = icmp ult ptr %41, %40
  br i1 %42, label %43, label %46

43:                                               ; preds = %_ZL10stbi__get8P13stbi__context.exit
  %44 = getelementptr inbounds nuw i8, ptr %41, i64 1
  store ptr %44, ptr %2, align 8, !tbaa !20
  %45 = load i8, ptr %41, align 1, !tbaa !22
  br label %_ZL10stbi__get8P13stbi__context.exit14

46:                                               ; preds = %_ZL10stbi__get8P13stbi__context.exit
  %47 = getelementptr inbounds nuw i8, ptr %0, i64 48
  %48 = load i32, ptr %47, align 8, !tbaa !17
  %.not.i9 = icmp eq i32 %48, 0
  br i1 %.not.i9, label %_ZL10stbi__get8P13stbi__context.exit14.thread, label %49

49:                                               ; preds = %46
  %50 = getelementptr inbounds nuw i8, ptr %0, i64 16
  %51 = load ptr, ptr %50, align 8, !tbaa !21
  %52 = getelementptr inbounds nuw i8, ptr %0, i64 40
  %53 = load ptr, ptr %52, align 8, !tbaa !13
  %54 = getelementptr inbounds nuw i8, ptr %0, i64 56
  %55 = getelementptr inbounds nuw i8, ptr %0, i64 52
  %56 = load i32, ptr %55, align 4, !tbaa !16
  %57 = tail call noundef i32 %51(ptr noundef %53, ptr noundef nonnull %54, i32 noundef %56)
  %58 = load ptr, ptr %2, align 8, !tbaa !20
  %59 = getelementptr inbounds nuw i8, ptr %0, i64 208
  %60 = load ptr, ptr %59, align 8, !tbaa !19
  %61 = ptrtoint ptr %58 to i64
  %62 = ptrtoint ptr %60 to i64
  %63 = sub i64 %61, %62
  %64 = trunc i64 %63 to i32
  %65 = getelementptr inbounds nuw i8, ptr %0, i64 184
  %66 = load i32, ptr %65, align 8, !tbaa !18
  %67 = add nsw i32 %66, %64
  store i32 %67, ptr %65, align 8, !tbaa !18
  %68 = icmp eq i32 %57, 0
  br i1 %68, label %69, label %71

69:                                               ; preds = %49
  store i32 0, ptr %47, align 8, !tbaa !17
  %70 = getelementptr inbounds nuw i8, ptr %0, i64 57
  store i8 0, ptr %54, align 1, !tbaa !22
  br label %_ZL19stbi__refill_bufferP13stbi__context.exit.i11

71:                                               ; preds = %49
  %72 = sext i32 %57 to i64
  %73 = getelementptr inbounds i8, ptr %54, i64 %72
  %.pre.i10 = load i8, ptr %54, align 1, !tbaa !22
  br label %_ZL19stbi__refill_bufferP13stbi__context.exit.i11

_ZL19stbi__refill_bufferP13stbi__context.exit.i11: ; preds = %71, %69
  %74 = phi i8 [ 0, %69 ], [ %.pre.i10, %71 ]
  %.sink.i.i12 = phi ptr [ %70, %69 ], [ %73, %71 ]
  store ptr %.sink.i.i12, ptr %4, align 8, !tbaa !23
  %75 = getelementptr inbounds nuw i8, ptr %0, i64 57
  store ptr %75, ptr %2, align 8, !tbaa !20
  br label %_ZL10stbi__get8P13stbi__context.exit14

_ZL10stbi__get8P13stbi__context.exit14:           ; preds = %43, %_ZL19stbi__refill_bufferP13stbi__context.exit.i11
  %.0.i13 = phi i8 [ %45, %43 ], [ %74, %_ZL19stbi__refill_bufferP13stbi__context.exit.i11 ]
  %.not = icmp ne i8 %.0.i, 80
  %76 = add i8 %.0.i13, -55
  %or.cond = icmp ult i8 %76, -2
  %or.cond8 = or i1 %.not, %or.cond
  br i1 %or.cond8, label %_ZL10stbi__get8P13stbi__context.exit14.thread, label %81

_ZL10stbi__get8P13stbi__context.exit14.thread:    ; preds = %46, %_ZL10stbi__get8P13stbi__context.exit14
  %77 = getelementptr inbounds nuw i8, ptr %0, i64 208
  %78 = load ptr, ptr %77, align 8, !tbaa !19
  store ptr %78, ptr %2, align 8, !tbaa !20
  %79 = getelementptr inbounds nuw i8, ptr %0, i64 216
  %80 = load ptr, ptr %79, align 8, !tbaa !24
  store ptr %80, ptr %4, align 8, !tbaa !23
  br label %81

81:                                               ; preds = %_ZL10stbi__get8P13stbi__context.exit14, %_ZL10stbi__get8P13stbi__context.exit14.thread
  %.0 = phi i32 [ 0, %_ZL10stbi__get8P13stbi__context.exit14.thread ], [ 1, %_ZL10stbi__get8P13stbi__context.exit14 ]
  ret i32 %.0
}